target datalayout = "e-m:e-p270:32:32-p271:32:32-p272:64:64-i64:64-i128:128-f80:128-n8:16:32:64-S128"
target triple = "x86_64-pc-linux-gnu"

%"struct.std::_Vector_base.202" = type { %"struct.std::_Vector_base<Correspondence, std::allocator<Correspondence>>::_Vector_impl" }
%"struct.std::_Vector_base<Correspondence, std::allocator<Correspondence>>::_Vector_impl" = type { %"struct.std::_Vector_base<Correspondence, std::allocator<Correspondence>>::_Vector_impl_data" }
%"struct.std::_Vector_base<Correspondence, std::allocator<Correspondence>>::_Vector_impl_data" = type { ptr, ptr, ptr }
%"class.std::vector.201" = type { %"struct.std::_Vector_base.202" }
%"class.vcg::SimpleTempData" = type <{ %"class.vcg::SimpleTempDataBase", ptr, %"class.vcg::VectorNBW", i32, [4 x i8] }>
%"class.vcg::SimpleTempDataBase" = type { ptr }
%"class.vcg::VectorNBW" = type { %"class.std::vector.241" }
%"class.std::vector.241" = type { %"struct.std::_Vector_base.242" }
%"struct.std::_Vector_base.242" = type { %"struct.std::_Vector_base<std::vector<Correspondence>, std::allocator<std::vector<Correspondence>>>::_Vector_impl" }
%"struct.std::_Vector_base<std::vector<Correspondence>, std::allocator<std::vector<Correspondence>>>::_Vector_impl" = type { %"struct.std::_Vector_base<std::vector<Correspondence>, std::allocator<std::vector<Correspondence>>>::_Vector_impl_data" }
%"struct.std::_Vector_base<std::vector<Correspondence>, std::allocator<std::vector<Correspondence>>>::_Vector_impl_data" = type { ptr, ptr, ptr }

; Function Attrs: mustprogress nounwind uwtable
define internal noundef nonnull align 8 dereferenceable(24) ptr @_ZNSt6vectorIS_IZN18FilterCameraPlugin11applyFilterB5cxx11EPK7QActionRK17RichParameterListR12MeshDocumentRjPFbiPKcEE14CorrespondenceSaISE_EESaISG_EEixEm(ptr noundef nonnull align 8 dereferenceable(24) %0, i64 noundef %1) #4 align 2 {
  %3 = alloca ptr, align 8
  %4 = alloca i64, align 8
  store ptr %0, ptr %3, align 8
  store i64 %1, ptr %4, align 8
  %5 = load ptr, ptr %3, align 8
  %6 = getelementptr inbounds %"struct.std::_Vector_base.242", ptr %5, i32 0, i32 0
  %7 = getelementptr inbounds %"struct.std::_Vector_base<std::vector<Correspondence>, std::allocator<std::vector<Correspondence>>>::_Vector_impl_data", ptr %6, i32 0, i32 0
  %8 = load ptr, ptr %7, align 8
  %9 = load i64, ptr %4, align 8
  %10 = getelementptr inbounds %"class.std::vector.201", ptr %8, i64 %9
  ret ptr %10
}

; Function Attrs: mustprogress uwtable
define internal void @_ZN3vcg14SimpleTempDataINS_6vertex10vector_ocfI8CVertexOEESt6vectorIZN18FilterCameraPlugin11applyFilterB5cxx11EPK7QActionRK17RichParameterListR12MeshDocumentRjPFbiPKcEE14CorrespondenceSaISK_EEE9CopyValueEmmPKNS_18SimpleTempDataBaseE(ptr noundef nonnull align 8 dereferenceable(44) %0, i64 noundef %1, i64 noundef %2, ptr noundef %3) unnamed_addr #5 align 2 {
  %5 = alloca ptr, align 8
  %6 = alloca i64, align 8
  %7 = alloca i64, align 8
  %8 = alloca ptr, align 8
  store ptr %0, ptr %5, align 8
  store i64 %1, ptr %6, align 8
  store i64 %2, ptr %7, align 8
  store ptr %3, ptr %8, align 8
  %9 = load ptr, ptr %5, align 8
  %10 = load ptr, ptr %8, align 8
  %11 = load i64, ptr %7, align 8
  %12 = load ptr, ptr %10, align 8
  %13 = getelementptr inbounds ptr, ptr %12, i64 8
  %14 = load ptr, ptr %13, align 8
  %15 = call noundef ptr %14(ptr noundef nonnull align 8 dereferenceable(8) %10, i64 noundef %11)
  %16 = getelementptr inbounds %"class.vcg::SimpleTempData", ptr %9, i32 0, i32 2
  %17 = load i64, ptr %6, align 8
  %18 = call noundef nonnull align 8 dereferenceable(24) ptr @_ZNSt6vectorIS_IZN18FilterCameraPlugin11applyFilterB5cxx11EPK7QActionRK17RichParameterListR12MeshDocumentRjPFbiPKcEE14CorrespondenceSaISE_EESaISG_EEixEm(ptr noundef nonnull align 8 dereferenceable(24) %16, i64 noundef %17) #3
  %19 = call noundef nonnull align 8 dereferenceable(24) ptr @_ZNSt6vectorIZN18FilterCameraPlugin11applyFilterB5cxx11EPK7QActionRK17RichParameterListR12MeshDocumentRjPFbiPKcEE14CorrespondenceSaISE_EEaSERKSG_(ptr noundef nonnull align 8 dereferenceable(24) %18, ptr noundef nonnull align 8 dereferenceable(24) %15)
  ret void
}