; Function Attrs: mustprogress uwtable
define internal void @_ZN3vcg14SimpleTempDataINS_6vertex10vector_ocfI8CVertexOEESt6vectorIZN18FilterCameraPlugin11applyFilterB5cxx11EPK7QActionRK17RichParameterListR12MeshDocumentRjPFbiPKcEE14CorrespondenceSaISK_EEE9CopyValueEmmPKNS_18SimpleTempDataBaseE(ptr nocapture noundef nonnull readonly align 8 dereferenceable(44) %0, i64 noundef %1, i64 noundef %2, ptr noundef %3) unnamed_addr #9 align 2 {
  %5 = load ptr, ptr %3, align 8
  %6 = getelementptr inbounds i8, ptr %5, i64 64
  %7 = load ptr, ptr %6, align 8
  %8 = tail call noundef ptr %7(ptr noundef nonnull align 8 dereferenceable(8) %3, i64 noundef %2)
  %9 = getelementptr inbounds i8, ptr %0, i64 16
  %.val = load ptr, ptr %9, align 8
  %10 = getelementptr inbounds %"class.std::vector.201", ptr %.val, i64 %1
  %11 = tail call fastcc noundef nonnull align 8 dereferenceable(24) ptr @_ZNSt6vectorIZN18FilterCameraPlugin11applyFilterB5cxx11EPK7QActionRK17RichParameterListR12MeshDocumentRjPFbiPKcEE14CorrespondenceSaISE_EEaSERKSG_(ptr noundef nonnull align 8 dereferenceable(24) %10, ptr noundef nonnull align 8 dereferenceable(24) %8)
  ret void
}